target datalayout = "e-m:e-p270:32:32-p271:32:32-p272:64:64-i64:64-i128:128-f80:128-n8:16:32:64-S128"
target triple = "x86_64-pc-linux-gnu"

%struct.expert_field = type { i32, i32 }
%struct.nstime_t = type { i64, i32 }

@hf_uftp_tfmccack = internal global i32 0, align 4
@hf_uftp_tfmccack_exttype = internal global i32 0, align 4
@hf_uftp_tfmccack_extlen = internal global i32 0, align 4
@hf_uftp_tfmccack_flags = internal global i32 0, align 4
@hf_uftp_tfmccack_reserved = internal global i32 0, align 4
@hf_uftp_tfmccack_cc_seq = internal global i32 0, align 4
@hf_uftp_tfmccack_cc_rate = internal global i32 0, align 4
@hf_uftp_tfmccack_client_id = internal global i32 0, align 4
@hf_uftp_tfmccack_tstamp = internal global i32 0, align 4
@ett_uftp_tfmccack = internal global i32 0, align 4
@ett_uftp_tfmccack_flags = internal global i32 0, align 4
@ei_uftp_length_invalid = internal global %struct.expert_field zeroinitializer, align 4
@.str.416 = private unnamed_addr constant [19 x i8] c"Invalid length: %d\00", align 1
@.str.417 = private unnamed_addr constant [36 x i8] c"Invalid length, len = %d, hlen = %d\00", align 1
@.str.418 = private unnamed_addr constant [14 x i8] c"%d bytes (%d)\00", align 1
@tfmcc_ack_flags = internal constant [6 x ptr] [ptr @hf_uftp_tfmccack_flags_clr, ptr @hf_uftp_tfmccack_flags_rtt, ptr @hf_uftp_tfmccack_flags_start, ptr @hf_uftp_tfmccack_flags_leave, ptr @hf_uftp_tfmccack_flags_reserved, ptr null], align 16

; Function Attrs: nounwind null_pointer_is_valid sspstrong uwtable
define internal { i64, i32 } @usec_to_nstime(i64 noundef %0) #3 {
  %2 = alloca %struct.nstime_t, align 8
  %3 = alloca i64, align 8
  store i64 %0, ptr %3, align 8
  %4 = load i64, ptr %3, align 8
  %5 = udiv i64 %4, 1000000
  %6 = getelementptr inbounds nuw %struct.nstime_t, ptr %2, i32 0, i32 0
  store i64 %5, ptr %6, align 8
  %7 = load i64, ptr %3, align 8
  %8 = urem i64 %7, 1000000
  %9 = mul i64 %8, 1000
  %10 = trunc i64 %9 to i32
  %11 = getelementptr inbounds nuw %struct.nstime_t, ptr %2, i32 0, i32 1
  store i32 %10, ptr %11, align 8
  %12 = load { i64, i32 }, ptr %2, align 8
  ret { i64, i32 } %12
}

; Function Attrs: nounwind null_pointer_is_valid sspstrong uwtable
define internal i32 @unquantize_rate(i16 noundef zeroext %0) #3 {
  %2 = alloca i16, align 2
  %3 = alloca i32, align 4
  %4 = alloca i32, align 4
  %5 = alloca double, align 8
  store i16 %0, ptr %2, align 2
  call void @llvm.lifetime.start.p0(i64 4, ptr %3) #6
  call void @llvm.lifetime.start.p0(i64 4, ptr %4) #6
  call void @llvm.lifetime.start.p0(i64 8, ptr %5) #6
  %6 = load i16, ptr %2, align 2
  %7 = zext i16 %6 to i32
  %8 = and i32 %7, 15
  store i32 %8, ptr %3, align 4
  %9 = load i16, ptr %2, align 2
  %10 = zext i16 %9 to i32
  %11 = ashr i32 %10, 4
  %12 = sitofp i32 %11 to double
  %13 = fmul double %12, 0x3F64000000000000
  store double %13, ptr %5, align 8
  store i32 0, ptr %4, align 4
  br label %14

14:                                               ; preds = %21, %1
  %15 = load i32, ptr %4, align 4
  %16 = load i32, ptr %3, align 4
  %17 = icmp slt i32 %15, %16
  br i1 %17, label %18, label %24

18:                                               ; preds = %14
  %19 = load double, ptr %5, align 8
  %20 = fmul double %19, 1.000000e+01
  store double %20, ptr %5, align 8
  br label %21

21:                                               ; preds = %18
  %22 = load i32, ptr %4, align 4
  %23 = add i32 %22, 1
  store i32 %23, ptr %4, align 4
  br label %14, !llvm.loop !23

24:                                               ; preds = %14
  %25 = load double, ptr %5, align 8
  %26 = fptoui double %25 to i32
  call void @llvm.lifetime.end.p0(i64 8, ptr %5) #6
  call void @llvm.lifetime.end.p0(i64 4, ptr %4) #6
  call void @llvm.lifetime.end.p0(i64 4, ptr %3) #6
  ret i32 %26
}

; Function Attrs: null_pointer_is_valid sspstrong uwtable
define internal i32 @dissect_uftp_tfmccack(ptr noundef %0, ptr noundef %1, ptr noundef %2) #0 {
  %4 = alloca i32, align 4
  %5 = alloca ptr, align 8
  %6 = alloca ptr, align 8
  %7 = alloca ptr, align 8
  %8 = alloca ptr, align 8
  %9 = alloca ptr, align 8
  %10 = alloca i32, align 4
  %11 = alloca i32, align 4
  %12 = alloca i32, align 4
  %13 = alloca %struct.nstime_t, align 8
  %14 = alloca i32, align 4
  %15 = alloca %struct.nstime_t, align 8
  store ptr %0, ptr %5, align 8
  store ptr %1, ptr %6, align 8
  store ptr %2, ptr %7, align 8
  call void @llvm.lifetime.start.p0(i64 8, ptr %8) #6
  store ptr null, ptr %8, align 8
  call void @llvm.lifetime.start.p0(i64 8, ptr %9) #6
  store ptr null, ptr %9, align 8
  call void @llvm.lifetime.start.p0(i64 4, ptr %10) #6
  store i32 0, ptr %10, align 4
  call void @llvm.lifetime.start.p0(i64 4, ptr %11) #6
  call void @llvm.lifetime.start.p0(i64 4, ptr %12) #6
  call void @llvm.lifetime.start.p0(i64 16, ptr %13) #6
  %16 = load ptr, ptr %5, align 8
  %17 = call i32 @tvb_reported_length(ptr noundef %16)
  %18 = icmp ult i32 %17, 20
  br i1 %18, label %19, label %27

19:                                               ; preds = %3
  %20 = load ptr, ptr %7, align 8
  %21 = load ptr, ptr %6, align 8
  %22 = load ptr, ptr %5, align 8
  %23 = load i32, ptr %10, align 4
  %24 = load ptr, ptr %5, align 8
  %25 = call i32 @tvb_reported_length(ptr noundef %24)
  %26 = call ptr (ptr, ptr, ptr, ptr, i32, i32, ptr, ...) @proto_tree_add_expert_format(ptr noundef %20, ptr noundef %21, ptr noundef @ei_uftp_length_invalid, ptr noundef %22, i32 noundef %23, i32 noundef -1, ptr noundef @.str.416, i32 noundef %25)
  store i32 0, ptr %4, align 4
  store i32 1, ptr %14, align 4
  br label %128

27:                                               ; preds = %3
  %28 = load ptr, ptr %5, align 8
  %29 = call zeroext i8 @tvb_get_uint8(ptr noundef %28, i32 noundef 1)
  %30 = zext i8 %29 to i32
  %31 = mul i32 %30, 4
  store i32 %31, ptr %11, align 4
  %32 = load ptr, ptr %5, align 8
  %33 = call i32 @tvb_reported_length(ptr noundef %32)
  %34 = load i32, ptr %11, align 4
  %35 = icmp slt i32 %33, %34
  br i1 %35, label %39, label %36

36:                                               ; preds = %27
  %37 = load i32, ptr %11, align 4
  %38 = icmp slt i32 %37, 20
  br i1 %38, label %39, label %48

39:                                               ; preds = %36, %27
  %40 = load ptr, ptr %7, align 8
  %41 = load ptr, ptr %6, align 8
  %42 = load ptr, ptr %5, align 8
  %43 = load i32, ptr %10, align 4
  %44 = load ptr, ptr %5, align 8
  %45 = call i32 @tvb_reported_length(ptr noundef %44)
  %46 = load i32, ptr %11, align 4
  %47 = call ptr (ptr, ptr, ptr, ptr, i32, i32, ptr, ...) @proto_tree_add_expert_format(ptr noundef %40, ptr noundef %41, ptr noundef @ei_uftp_length_invalid, ptr noundef %42, i32 noundef %43, i32 noundef -1, ptr noundef @.str.417, i32 noundef %45, i32 noundef %46)
  store i32 0, ptr %4, align 4
  store i32 1, ptr %14, align 4
  br label %128

48:                                               ; preds = %36
  %49 = load ptr, ptr %5, align 8
  %50 = call zeroext i16 @tvb_get_ntohs(ptr noundef %49, i32 noundef 6)
  %51 = call i32 @unquantize_rate(i16 noundef zeroext %50)
  store i32 %51, ptr %12, align 4
  %52 = load ptr, ptr %7, align 8
  %53 = load i32, ptr @hf_uftp_tfmccack, align 4
  %54 = load ptr, ptr %5, align 8
  %55 = load i32, ptr %10, align 4
  %56 = call ptr @proto_tree_add_item(ptr noundef %52, i32 noundef %53, ptr noundef %54, i32 noundef %55, i32 noundef 20, i32 noundef 0)
  store ptr %56, ptr %8, align 8
  %57 = load ptr, ptr %8, align 8
  %58 = load i32, ptr @ett_uftp_tfmccack, align 4
  %59 = call ptr @proto_item_add_subtree(ptr noundef %57, i32 noundef %58)
  store ptr %59, ptr %9, align 8
  %60 = load ptr, ptr %9, align 8
  %61 = load i32, ptr @hf_uftp_tfmccack_exttype, align 4
  %62 = load ptr, ptr %5, align 8
  %63 = load i32, ptr %10, align 4
  %64 = call ptr @proto_tree_add_item(ptr noundef %60, i32 noundef %61, ptr noundef %62, i32 noundef %63, i32 noundef 1, i32 noundef 0)
  %65 = load i32, ptr %10, align 4
  %66 = add i32 %65, 1
  store i32 %66, ptr %10, align 4
  %67 = load ptr, ptr %9, align 8
  %68 = load i32, ptr @hf_uftp_tfmccack_extlen, align 4
  %69 = load ptr, ptr %5, align 8
  %70 = load i32, ptr %10, align 4
  %71 = load i32, ptr %11, align 4
  %72 = load i32, ptr %11, align 4
  %73 = load i32, ptr %11, align 4
  %74 = sdiv i32 %73, 4
  %75 = call ptr (ptr, i32, ptr, i32, i32, i32, ptr, ...) @proto_tree_add_uint_format_value(ptr noundef %67, i32 noundef %68, ptr noundef %69, i32 noundef %70, i32 noundef 1, i32 noundef %71, ptr noundef @.str.418, i32 noundef %72, i32 noundef %74)
  %76 = load i32, ptr %10, align 4
  %77 = add i32 %76, 1
  store i32 %77, ptr %10, align 4
  %78 = load ptr, ptr %9, align 8
  %79 = load ptr, ptr %5, align 8
  %80 = load i32, ptr %10, align 4
  %81 = load i32, ptr @hf_uftp_tfmccack_flags, align 4
  %82 = load i32, ptr @ett_uftp_tfmccack_flags, align 4
  %83 = call ptr @proto_tree_add_bitmask(ptr noundef %78, ptr noundef %79, i32 noundef %80, i32 noundef %81, i32 noundef %82, ptr noundef @tfmcc_ack_flags, i32 noundef 0)
  %84 = load i32, ptr %10, align 4
  %85 = add i32 %84, 1
  store i32 %85, ptr %10, align 4
  %86 = load ptr, ptr %9, align 8
  %87 = load i32, ptr @hf_uftp_tfmccack_reserved, align 4
  %88 = load ptr, ptr %5, align 8
  %89 = load i32, ptr %10, align 4
  %90 = call ptr @proto_tree_add_item(ptr noundef %86, i32 noundef %87, ptr noundef %88, i32 noundef %89, i32 noundef 1, i32 noundef 0)
  %91 = load i32, ptr %10, align 4
  %92 = add i32 %91, 1
  store i32 %92, ptr %10, align 4
  %93 = load ptr, ptr %9, align 8
  %94 = load i32, ptr @hf_uftp_tfmccack_cc_seq, align 4
  %95 = load ptr, ptr %5, align 8
  %96 = load i32, ptr %10, align 4
  %97 = call ptr @proto_tree_add_item(ptr noundef %93, i32 noundef %94, ptr noundef %95, i32 noundef %96, i32 noundef 2, i32 noundef 0)
  %98 = load i32, ptr %10, align 4
  %99 = add i32 %98, 2
  store i32 %99, ptr %10, align 4
  %100 = load ptr, ptr %9, align 8
  %101 = load i32, ptr @hf_uftp_tfmccack_cc_rate, align 4
  %102 = load ptr, ptr %5, align 8
  %103 = load i32, ptr %10, align 4
  %104 = load i32, ptr %12, align 4
  %105 = call ptr @proto_tree_add_uint(ptr noundef %100, i32 noundef %101, ptr noundef %102, i32 noundef %103, i32 noundef 2, i32 noundef %104)
  %106 = load i32, ptr %10, align 4
  %107 = add i32 %106, 2
  store i32 %107, ptr %10, align 4
  %108 = load ptr, ptr %9, align 8
  %109 = load i32, ptr @hf_uftp_tfmccack_client_id, align 4
  %110 = load ptr, ptr %5, align 8
  %111 = load i32, ptr %10, align 4
  %112 = call ptr @proto_tree_add_item(ptr noundef %108, i32 noundef %109, ptr noundef %110, i32 noundef %111, i32 noundef 4, i32 noundef 0)
  %113 = load i32, ptr %10, align 4
  %114 = add i32 %113, 4
  store i32 %114, ptr %10, align 4
  call void @llvm.lifetime.start.p0(i64 16, ptr %15) #6
  %115 = load ptr, ptr %5, align 8
  %116 = load i32, ptr %10, align 4
  %117 = call i64 @tvb_get_ntoh64(ptr noundef %115, i32 noundef %116)
  %118 = call { i64, i32 } @usec_to_nstime(i64 noundef %117)
  %119 = getelementptr inbounds nuw { i64, i32 }, ptr %15, i32 0, i32 0
  %120 = extractvalue { i64, i32 } %118, 0
  store i64 %120, ptr %119, align 8
  %121 = getelementptr inbounds nuw { i64, i32 }, ptr %15, i32 0, i32 1
  %122 = extractvalue { i64, i32 } %118, 1
  store i32 %122, ptr %121, align 8
  call void @llvm.memcpy.p0.p0.i64(ptr align 8 %13, ptr align 8 %15, i64 16, i1 false)
  call void @llvm.lifetime.end.p0(i64 16, ptr %15) #6
  %123 = load ptr, ptr %9, align 8
  %124 = load i32, ptr @hf_uftp_tfmccack_tstamp, align 4
  %125 = load ptr, ptr %5, align 8
  %126 = load i32, ptr %10, align 4
  %127 = call ptr @proto_tree_add_time(ptr noundef %123, i32 noundef %124, ptr noundef %125, i32 noundef %126, i32 noundef 8, ptr noundef %13)
  store i32 20, ptr %4, align 4
  store i32 1, ptr %14, align 4
  br label %128

128:                                              ; preds = %48, %39, %19
  call void @llvm.lifetime.end.p0(i64 16, ptr %13) #6
  call void @llvm.lifetime.end.p0(i64 4, ptr %12) #6
  call void @llvm.lifetime.end.p0(i64 4, ptr %11) #6
  call void @llvm.lifetime.end.p0(i64 4, ptr %10) #6
  call void @llvm.lifetime.end.p0(i64 8, ptr %9) #6
  call void @llvm.lifetime.end.p0(i64 8, ptr %8) #6
  %129 = load i32, ptr %4, align 4
  ret i32 %129
}