; Function Attrs: null_pointer_is_valid sspstrong uwtable
define internal fastcc range(i32 0, 21) i32 @dissect_uftp_tfmccack(ptr noundef %0, ptr noundef %1, ptr noundef %2) unnamed_addr #0 {
  %4 = alloca %struct.nstime_t, align 8
  call void @llvm.lifetime.start.p0(i64 16, ptr nonnull %4) #5
  %5 = tail call i32 @tvb_reported_length(ptr noundef %0)
  %6 = icmp ult i32 %5, 20
  br i1 %6, label %7, label %10

7:                                                ; preds = %3
  %8 = tail call i32 @tvb_reported_length(ptr noundef %0)
  %9 = tail call ptr (ptr, ptr, ptr, ptr, i32, i32, ptr, ...) @proto_tree_add_expert_format(ptr noundef %2, ptr noundef %1, ptr noundef nonnull @ei_uftp_length_invalid, ptr noundef %0, i32 noundef 0, i32 noundef -1, ptr noundef nonnull @.str.416, i32 noundef %8)
  br label %56

10:                                               ; preds = %3
  %11 = tail call zeroext i8 @tvb_get_uint8(ptr noundef %0, i32 noundef 1)
  %12 = zext i8 %11 to i32
  %13 = shl nuw nsw i32 %12, 2
  %14 = tail call i32 @tvb_reported_length(ptr noundef %0)
  %15 = icmp slt i32 %14, %13
  %16 = icmp ult i8 %11, 5
  %or.cond = select i1 %15, i1 true, i1 %16
  br i1 %or.cond, label %17, label %20

17:                                               ; preds = %10
  %18 = tail call i32 @tvb_reported_length(ptr noundef %0)
  %19 = tail call ptr (ptr, ptr, ptr, ptr, i32, i32, ptr, ...) @proto_tree_add_expert_format(ptr noundef %2, ptr noundef %1, ptr noundef nonnull @ei_uftp_length_invalid, ptr noundef %0, i32 noundef 0, i32 noundef -1, ptr noundef nonnull @.str.417, i32 noundef %18, i32 noundef %13)
  br label %56

20:                                               ; preds = %10
  %21 = tail call zeroext i16 @tvb_get_ntohs(ptr noundef %0, i32 noundef 6)
  %22 = zext i16 %21 to i32
  %23 = and i32 %22, 15
  %24 = lshr i32 %22, 4
  %25 = uitofp nneg i32 %24 to double
  %26 = fmul double %25, 0x3F64000000000000
  %.not.i = icmp eq i32 %23, 0
  br i1 %.not.i, label %unquantize_rate.exit, label %.lr.ph.i

.lr.ph.i:                                         ; preds = %20, %.lr.ph.i
  %.08.i = phi double [ %27, %.lr.ph.i ], [ %26, %20 ]
  %.067.i = phi i32 [ %28, %.lr.ph.i ], [ 0, %20 ]
  %27 = fmul double %.08.i, 1.000000e+01
  %28 = add nuw nsw i32 %.067.i, 1
  %exitcond.not.i = icmp eq i32 %28, %23
  br i1 %exitcond.not.i, label %unquantize_rate.exit, label %.lr.ph.i, !llvm.loop !14

unquantize_rate.exit:                             ; preds = %.lr.ph.i, %20
  %.0.lcssa.i = phi double [ %26, %20 ], [ %27, %.lr.ph.i ]
  %29 = fptoui double %.0.lcssa.i to i32
  %30 = load i32, ptr @hf_uftp_tfmccack, align 4
  %31 = tail call ptr @proto_tree_add_item(ptr noundef %2, i32 noundef %30, ptr noundef %0, i32 noundef 0, i32 noundef 20, i32 noundef 0)
  %32 = load i32, ptr @ett_uftp_tfmccack, align 4
  %33 = tail call ptr @proto_item_add_subtree(ptr noundef %31, i32 noundef %32)
  %34 = load i32, ptr @hf_uftp_tfmccack_exttype, align 4
  %35 = tail call ptr @proto_tree_add_item(ptr noundef %33, i32 noundef %34, ptr noundef %0, i32 noundef 0, i32 noundef 1, i32 noundef 0)
  %36 = load i32, ptr @hf_uftp_tfmccack_extlen, align 4
  %37 = tail call ptr (ptr, i32, ptr, i32, i32, i32, ptr, ...) @proto_tree_add_uint_format_value(ptr noundef %33, i32 noundef %36, ptr noundef %0, i32 noundef 1, i32 noundef 1, i32 noundef %13, ptr noundef nonnull @.str.418, i32 noundef %13, i32 noundef %12)
  %38 = load i32, ptr @hf_uftp_tfmccack_flags, align 4
  %39 = load i32, ptr @ett_uftp_tfmccack_flags, align 4
  %40 = tail call ptr @proto_tree_add_bitmask(ptr noundef %33, ptr noundef %0, i32 noundef 2, i32 noundef %38, i32 noundef %39, ptr noundef nonnull @tfmcc_ack_flags, i32 noundef 0)
  %41 = load i32, ptr @hf_uftp_tfmccack_reserved, align 4
  %42 = tail call ptr @proto_tree_add_item(ptr noundef %33, i32 noundef %41, ptr noundef %0, i32 noundef 3, i32 noundef 1, i32 noundef 0)
  %43 = load i32, ptr @hf_uftp_tfmccack_cc_seq, align 4
  %44 = tail call ptr @proto_tree_add_item(ptr noundef %33, i32 noundef %43, ptr noundef %0, i32 noundef 4, i32 noundef 2, i32 noundef 0)
  %45 = load i32, ptr @hf_uftp_tfmccack_cc_rate, align 4
  %46 = tail call ptr @proto_tree_add_uint(ptr noundef %33, i32 noundef %45, ptr noundef %0, i32 noundef 6, i32 noundef 2, i32 noundef %29)
  %47 = load i32, ptr @hf_uftp_tfmccack_client_id, align 4
  %48 = tail call ptr @proto_tree_add_item(ptr noundef %33, i32 noundef %47, ptr noundef %0, i32 noundef 8, i32 noundef 4, i32 noundef 0)
  %49 = tail call i64 @tvb_get_ntoh64(ptr noundef %0, i32 noundef 12)
  %50 = udiv i64 %49, 1000000
  %51 = urem i64 %49, 1000000
  %52 = trunc nuw nsw i64 %51 to i32
  %53 = mul nuw nsw i32 %52, 1000
  store i64 %50, ptr %4, align 8
  %.sroa.4.0..sroa_idx = getelementptr inbounds nuw i8, ptr %4, i64 8
  store i32 %53, ptr %.sroa.4.0..sroa_idx, align 8
  %54 = load i32, ptr @hf_uftp_tfmccack_tstamp, align 4
  %55 = call ptr @proto_tree_add_time(ptr noundef %33, i32 noundef %54, ptr noundef %0, i32 noundef 12, i32 noundef 8, ptr noundef nonnull %4)
  br label %56

56:                                               ; preds = %unquantize_rate.exit, %17, %7
  %.0 = phi i32 [ 0, %7 ], [ 0, %17 ], [ 20, %unquantize_rate.exit ]
  call void @llvm.lifetime.end.p0(i64 16, ptr nonnull %4) #5
  ret i32 %.0
}